; Function Attrs: mustprogress nofree norecurse nosync nounwind willreturn memory(read, inaccessiblemem: none) uwtable
define range(i32 -1, 2) i32 @sat_solver3_get_var_value(ptr noundef readonly captures(none) %0, i32 noundef %1) local_unnamed_addr #0 {
  %3 = getelementptr i8, ptr %0, i64 208
  %.val = load ptr, ptr %3, align 8, !tbaa !3
  %4 = sext i32 %1 to i64
  %5 = getelementptr inbounds i8, ptr %.val, i64 %4
  %6 = load i8, ptr %5, align 1, !tbaa !22
  %switch.selectcmp = icmp eq i8 %6, 0
  %switch.select = zext i1 %switch.selectcmp to i32
  %switch.selectcmp8 = icmp eq i8 %6, 1
  %switch.select9 = select i1 %switch.selectcmp8, i32 -1, i32 %switch.select
  ret i32 %switch.select9
}